(dp0
S'comparison_df'
p1
ccopy_reg
_reconstructor
p2
(cpandas.core.frame
DataFrame
p3
c__builtin__
object
p4
Ntp5
Rp6
(dp7
S'_metadata'
p8
(lp9
sS'_typ'
p10
S'dataframe'
p11
sS'_data'
p12
g2
(cpandas.core.internals
BlockManager
p13
g4
Ntp14
Rp15
((lp16
cpandas.indexes.base
_new_Index
p17
(cpandas.indexes.base
Index
p18
(dp19
S'data'
p20
cnumpy.core.multiarray
_reconstruct
p21
(cnumpy
ndarray
p22
(I0
tp23
S'b'
p24
tp25
Rp26
(I1
(I3
tp27
cnumpy
dtype
p28
(S'O8'
p29
I0
I1
tp30
Rp31
(I3
S'|'
p32
NNNI-1
I-1
I63
tp33
bI00
(lp34
S'actual'
p35
aS'predicted'
p36
aS'cca_score'
p37
atp38
bsS'name'
p39
Nstp40
Rp41
ag17
(cpandas.indexes.numeric
Int64Index
p42
(dp43
g20
g21
(g22
(I0
tp44
g24
tp45
Rp46
(I1
(I4
tp47
g28
(S'i8'
p48
I0
I1
tp49
Rp50
(I3
S'<'
p51
NNNI-1
I-1
I0
tp52
bI00
S'\x00\x00\x00\x00\x00\x00\x00\x00\x01\x00\x00\x00\x00\x00\x00\x00\x02\x00\x00\x00\x00\x00\x00\x00\x03\x00\x00\x00\x00\x00\x00\x00'
p53
tp54
bsg39
Nstp55
Rp56
a(lp57
g21
(g22
(I0
tp58
g24
tp59
Rp60
(I1
(I3
I4
tp61
g28
(S'f8'
p62
I0
I1
tp63
Rp64
(I3
S'<'
p65
NNNI-1
I-1
I0
tp66
bI00
S'\x00\x00\x00\x00\x00@f@\x00\x00\x00\x00\x00@f@\x00\x00\x00\x00\x00R\xa5@\x00\x00\x00\x00\x00R\xa5@\x00\x00\x00\x00\x00@f@\x00\x00\x00\x00\x00R\xa5@\x00\x00\x00\x00\x00@f@\x00\x00\x00\x00\x00R\xa5@^\x81F\xf8\r\xb3\xda?\xb2\xea\x1f\r\xed\x1f\xda?aFZTy\xc9\x85\xbf\xdd".t\xf9\xa6\xa7?'
p67
tp68
ba(lp69
g17
(g18
(dp70
g20
g21
(g22
(I0
tp71
g24
tp72
Rp73
(I1
(I3
tp74
g31
I00
(lp75
g35
ag36
ag37
atp76
bsg39
Nstp77
Rp78
a(dp79
S'0.14.1'
p80
(dp81
S'axes'
p82
g16
sS'blocks'
p83
(lp84
(dp85
S'mgr_locs'
p86
c__builtin__
slice
p87
(I0
I3
I1
tp88
Rp89
sS'values'
p90
g60
sasstp91
bsbsS'r2_178'
p92
cnumpy.core.multiarray
scalar
p93
(g64
S'(-\x17\xf48:\xc9\xbf'
p94
tp95
Rp96
sS'r2_2729'
p97
g93
(g64
S'\xf8\xd5\xfc`\xb3\x1c\xdc\xbf'
p98
tp99
Rp100
sS'number_correct'
p101
I2
s.