(dp0
S'r2_8718'
p1
cnumpy.core.multiarray
scalar
p2
(cnumpy
dtype
p3
(S'f8'
p4
I0
I1
tp5
Rp6
(I3
S'<'
p7
NNNI-1
I-1
I0
tp8
bS'\xb4\xb6\x14>j\x88\xe7\xbf'
p9
tp10
Rp11
sS'comparison_df'
p12
ccopy_reg
_reconstructor
p13
(cpandas.core.frame
DataFrame
p14
c__builtin__
object
p15
Ntp16
Rp17
(dp18
S'_metadata'
p19
(lp20
sS'_typ'
p21
S'dataframe'
p22
sS'_data'
p23
g13
(cpandas.core.internals
BlockManager
p24
g15
Ntp25
Rp26
((lp27
cpandas.indexes.base
_new_Index
p28
(cpandas.indexes.base
Index
p29
(dp30
S'data'
p31
cnumpy.core.multiarray
_reconstruct
p32
(cnumpy
ndarray
p33
(I0
tp34
S'b'
p35
tp36
Rp37
(I1
(I3
tp38
g3
(S'O8'
p39
I0
I1
tp40
Rp41
(I3
S'|'
p42
NNNI-1
I-1
I63
tp43
bI00
(lp44
S'actual'
p45
aS'predicted'
p46
aS'cca_score'
p47
atp48
bsS'name'
p49
Nstp50
Rp51
ag28
(cpandas.indexes.numeric
Int64Index
p52
(dp53
g31
g32
(g33
(I0
tp54
g35
tp55
Rp56
(I1
(I4
tp57
g3
(S'i8'
p58
I0
I1
tp59
Rp60
(I3
S'<'
p61
NNNI-1
I-1
I0
tp62
bI00
S'\x00\x00\x00\x00\x00\x00\x00\x00\x01\x00\x00\x00\x00\x00\x00\x00\x02\x00\x00\x00\x00\x00\x00\x00\x03\x00\x00\x00\x00\x00\x00\x00'
p63
tp64
bsg49
Nstp65
Rp66
a(lp67
g32
(g33
(I0
tp68
g35
tp69
Rp70
(I1
(I3
I4
tp71
g6
I00
S'\x00\x00\x00\x00\x00V\xa5@\x00\x00\x00\x00\x00V\xa5@\x00\x00\x00\x00\x00\x07\xc1@\x00\x00\x00\x00\x00\x07\xc1@\x00\x00\x00\x00\x00V\xa5@\x00\x00\x00\x00\x00\x07\xc1@\x00\x00\x00\x00\x00V\xa5@\x00\x00\x00\x00\x00\x07\xc1@\xf1@\xd8\x98P:\x96?/\x9eU\xf4\x02v\xa0\xbf}\xd4\x85t1]\xdb\xbf+\x8bS\xd4C\x1d\xe1\xbf'
p72
tp73
ba(lp74
g28
(g29
(dp75
g31
g32
(g33
(I0
tp76
g35
tp77
Rp78
(I1
(I3
tp79
g41
I00
(lp80
g45
ag46
ag47
atp81
bsg49
Nstp82
Rp83
a(dp84
S'0.14.1'
p85
(dp86
S'axes'
p87
g27
sS'blocks'
p88
(lp89
(dp90
S'mgr_locs'
p91
c__builtin__
slice
p92
(I0
I3
I1
tp93
Rp94
sS'values'
p95
g70
sasstp96
bsbsS'r2_2731'
p97
g2
(g6
S"x4'\x03\xdf\xbc\xcf\xbf"
p98
tp99
Rp100
sS'number_correct'
p101
I1
s.