(dp0
I3188
S'/scratch/users/vsochat/DATA/BRAINMETA/ontological_comparison/data/resampled_z_4mm/003188.nii.gz'
p1
sI3
S'/scratch/users/vsochat/DATA/BRAINMETA/ontological_comparison/data/resampled_z_4mm/000003.nii.gz'
p2
sI4
S'/scratch/users/vsochat/DATA/BRAINMETA/ontological_comparison/data/resampled_z_4mm/000004.nii.gz'
p3
sI10924
S'/scratch/users/vsochat/DATA/BRAINMETA/ontological_comparison/data/resampled_z_4mm/010924.nii.gz'
p4
sI8718
S'/scratch/users/vsochat/DATA/BRAINMETA/ontological_comparison/data/resampled_z_4mm/008718.nii.gz'
p5
sI8719
S'/scratch/users/vsochat/DATA/BRAINMETA/ontological_comparison/data/resampled_z_4mm/008719.nii.gz'
p6
sI8727
S'/scratch/users/vsochat/DATA/BRAINMETA/ontological_comparison/data/resampled_z_4mm/008727.nii.gz'
p7
sI8730
S'/scratch/users/vsochat/DATA/BRAINMETA/ontological_comparison/data/resampled_z_4mm/008730.nii.gz'
p8
sI1583
S'/scratch/users/vsochat/DATA/BRAINMETA/ontological_comparison/data/resampled_z_4mm/001583.nii.gz'
p9
sI1584
S'/scratch/users/vsochat/DATA/BRAINMETA/ontological_comparison/data/resampled_z_4mm/001584.nii.gz'
p10
sI1585
S'/scratch/users/vsochat/DATA/BRAINMETA/ontological_comparison/data/resampled_z_4mm/001585.nii.gz'
p11
sI1586
S'/scratch/users/vsochat/DATA/BRAINMETA/ontological_comparison/data/resampled_z_4mm/001586.nii.gz'
p12
sI1587
S'/scratch/users/vsochat/DATA/BRAINMETA/ontological_comparison/data/resampled_z_4mm/001587.nii.gz'
p13
sI3129
S'/scratch/users/vsochat/DATA/BRAINMETA/ontological_comparison/data/resampled_z_4mm/003129.nii.gz'
p14
sI3131
S'/scratch/users/vsochat/DATA/BRAINMETA/ontological_comparison/data/resampled_z_4mm/003131.nii.gz'
p15
sI3142
S'/scratch/users/vsochat/DATA/BRAINMETA/ontological_comparison/data/resampled_z_4mm/003142.nii.gz'
p16
sI3154
S'/scratch/users/vsochat/DATA/BRAINMETA/ontological_comparison/data/resampled_z_4mm/003154.nii.gz'
p17
sI3156
S'/scratch/users/vsochat/DATA/BRAINMETA/ontological_comparison/data/resampled_z_4mm/003156.nii.gz'
p18
sI3158
S'/scratch/users/vsochat/DATA/BRAINMETA/ontological_comparison/data/resampled_z_4mm/003158.nii.gz'
p19
sI3160
S'/scratch/users/vsochat/DATA/BRAINMETA/ontological_comparison/data/resampled_z_4mm/003160.nii.gz'
p20
sI3162
S'/scratch/users/vsochat/DATA/BRAINMETA/ontological_comparison/data/resampled_z_4mm/003162.nii.gz'
p21
sI3164
S'/scratch/users/vsochat/DATA/BRAINMETA/ontological_comparison/data/resampled_z_4mm/003164.nii.gz'
p22
sI3173
S'/scratch/users/vsochat/DATA/BRAINMETA/ontological_comparison/data/resampled_z_4mm/003173.nii.gz'
p23
sI3175
S'/scratch/users/vsochat/DATA/BRAINMETA/ontological_comparison/data/resampled_z_4mm/003175.nii.gz'
p24
sI3179
S'/scratch/users/vsochat/DATA/BRAINMETA/ontological_comparison/data/resampled_z_4mm/003179.nii.gz'
p25
sI3180
S'/scratch/users/vsochat/DATA/BRAINMETA/ontological_comparison/data/resampled_z_4mm/003180.nii.gz'
p26
sI109
S'/scratch/users/vsochat/DATA/BRAINMETA/ontological_comparison/data/resampled_z_4mm/000109.nii.gz'
p27
sI111
S'/scratch/users/vsochat/DATA/BRAINMETA/ontological_comparison/data/resampled_z_4mm/000111.nii.gz'
p28
sI3185
S'/scratch/users/vsochat/DATA/BRAINMETA/ontological_comparison/data/resampled_z_4mm/003185.nii.gz'
p29
sI3186
S'/scratch/users/vsochat/DATA/BRAINMETA/ontological_comparison/data/resampled_z_4mm/003186.nii.gz'
p30
sI3187
S'/scratch/users/vsochat/DATA/BRAINMETA/ontological_comparison/data/resampled_z_4mm/003187.nii.gz'
p31
sI116
S'/scratch/users/vsochat/DATA/BRAINMETA/ontological_comparison/data/resampled_z_4mm/000116.nii.gz'
p32
sI118
S'/scratch/users/vsochat/DATA/BRAINMETA/ontological_comparison/data/resampled_z_4mm/000118.nii.gz'
p33
sI119
S'/scratch/users/vsochat/DATA/BRAINMETA/ontological_comparison/data/resampled_z_4mm/000119.nii.gz'
p34
sI3192
S'/scratch/users/vsochat/DATA/BRAINMETA/ontological_comparison/data/resampled_z_4mm/003192.nii.gz'
p35
sI3193
S'/scratch/users/vsochat/DATA/BRAINMETA/ontological_comparison/data/resampled_z_4mm/003193.nii.gz'
p36
sI122
S'/scratch/users/vsochat/DATA/BRAINMETA/ontological_comparison/data/resampled_z_4mm/000122.nii.gz'
p37
sI135
S'/scratch/users/vsochat/DATA/BRAINMETA/ontological_comparison/data/resampled_z_4mm/000135.nii.gz'
p38
sI136
S'/scratch/users/vsochat/DATA/BRAINMETA/ontological_comparison/data/resampled_z_4mm/000136.nii.gz'
p39
sI138
S'/scratch/users/vsochat/DATA/BRAINMETA/ontological_comparison/data/resampled_z_4mm/000138.nii.gz'
p40
sI139
S'/scratch/users/vsochat/DATA/BRAINMETA/ontological_comparison/data/resampled_z_4mm/000139.nii.gz'
p41
sI140
S'/scratch/users/vsochat/DATA/BRAINMETA/ontological_comparison/data/resampled_z_4mm/000140.nii.gz'
p42
sI141
S'/scratch/users/vsochat/DATA/BRAINMETA/ontological_comparison/data/resampled_z_4mm/000141.nii.gz'
p43
sI142
S'/scratch/users/vsochat/DATA/BRAINMETA/ontological_comparison/data/resampled_z_4mm/000142.nii.gz'
p44
sI143
S'/scratch/users/vsochat/DATA/BRAINMETA/ontological_comparison/data/resampled_z_4mm/000143.nii.gz'
p45
sI144
S'/scratch/users/vsochat/DATA/BRAINMETA/ontological_comparison/data/resampled_z_4mm/000144.nii.gz'
p46
sI146
S'/scratch/users/vsochat/DATA/BRAINMETA/ontological_comparison/data/resampled_z_4mm/000146.nii.gz'
p47
sI147
S'/scratch/users/vsochat/DATA/BRAINMETA/ontological_comparison/data/resampled_z_4mm/000147.nii.gz'
p48
sI149
S'/scratch/users/vsochat/DATA/BRAINMETA/ontological_comparison/data/resampled_z_4mm/000149.nii.gz'
p49
sI2714
S'/scratch/users/vsochat/DATA/BRAINMETA/ontological_comparison/data/resampled_z_4mm/002714.nii.gz'
p50
sI157
S'/scratch/users/vsochat/DATA/BRAINMETA/ontological_comparison/data/resampled_z_4mm/000157.nii.gz'
p51
sI2718
S'/scratch/users/vsochat/DATA/BRAINMETA/ontological_comparison/data/resampled_z_4mm/002718.nii.gz'
p52
sI159
S'/scratch/users/vsochat/DATA/BRAINMETA/ontological_comparison/data/resampled_z_4mm/000159.nii.gz'
p53
sI2723
S'/scratch/users/vsochat/DATA/BRAINMETA/ontological_comparison/data/resampled_z_4mm/002723.nii.gz'
p54
sI164
S'/scratch/users/vsochat/DATA/BRAINMETA/ontological_comparison/data/resampled_z_4mm/000164.nii.gz'
p55
sI165
S'/scratch/users/vsochat/DATA/BRAINMETA/ontological_comparison/data/resampled_z_4mm/000165.nii.gz'
p56
sI166
S'/scratch/users/vsochat/DATA/BRAINMETA/ontological_comparison/data/resampled_z_4mm/000166.nii.gz'
p57
sI2729
S'/scratch/users/vsochat/DATA/BRAINMETA/ontological_comparison/data/resampled_z_4mm/002729.nii.gz'
p58
sI2731
S'/scratch/users/vsochat/DATA/BRAINMETA/ontological_comparison/data/resampled_z_4mm/002731.nii.gz'
p59
sI172
S'/scratch/users/vsochat/DATA/BRAINMETA/ontological_comparison/data/resampled_z_4mm/000172.nii.gz'
p60
sI173
S'/scratch/users/vsochat/DATA/BRAINMETA/ontological_comparison/data/resampled_z_4mm/000173.nii.gz'
p61
sI177
S'/scratch/users/vsochat/DATA/BRAINMETA/ontological_comparison/data/resampled_z_4mm/000177.nii.gz'
p62
sI178
S'/scratch/users/vsochat/DATA/BRAINMETA/ontological_comparison/data/resampled_z_4mm/000178.nii.gz'
p63
sI183
S'/scratch/users/vsochat/DATA/BRAINMETA/ontological_comparison/data/resampled_z_4mm/000183.nii.gz'
p64
sI8820
S'/scratch/users/vsochat/DATA/BRAINMETA/ontological_comparison/data/resampled_z_4mm/008820.nii.gz'
p65
sI186
S'/scratch/users/vsochat/DATA/BRAINMETA/ontological_comparison/data/resampled_z_4mm/000186.nii.gz'
p66
sI187
S'/scratch/users/vsochat/DATA/BRAINMETA/ontological_comparison/data/resampled_z_4mm/000187.nii.gz'
p67
sI188
S'/scratch/users/vsochat/DATA/BRAINMETA/ontological_comparison/data/resampled_z_4mm/000188.nii.gz'
p68
sI190
S'/scratch/users/vsochat/DATA/BRAINMETA/ontological_comparison/data/resampled_z_4mm/000190.nii.gz'
p69
sI3191
S'/scratch/users/vsochat/DATA/BRAINMETA/ontological_comparison/data/resampled_z_4mm/003191.nii.gz'
p70
sI120
S'/scratch/users/vsochat/DATA/BRAINMETA/ontological_comparison/data/resampled_z_4mm/000120.nii.gz'
p71
sI1750
S'/scratch/users/vsochat/DATA/BRAINMETA/ontological_comparison/data/resampled_z_4mm/001750.nii.gz'
p72
sI3194
S'/scratch/users/vsochat/DATA/BRAINMETA/ontological_comparison/data/resampled_z_4mm/003194.nii.gz'
p73
sI2824
S'/scratch/users/vsochat/DATA/BRAINMETA/ontological_comparison/data/resampled_z_4mm/002824.nii.gz'
p74
sI2826
S'/scratch/users/vsochat/DATA/BRAINMETA/ontological_comparison/data/resampled_z_4mm/002826.nii.gz'
p75
sI2863
S'/scratch/users/vsochat/DATA/BRAINMETA/ontological_comparison/data/resampled_z_4mm/002863.nii.gz'
p76
sI2866
S'/scratch/users/vsochat/DATA/BRAINMETA/ontological_comparison/data/resampled_z_4mm/002866.nii.gz'
p77
sI2883
S'/scratch/users/vsochat/DATA/BRAINMETA/ontological_comparison/data/resampled_z_4mm/002883.nii.gz'
p78
sI394
S'/scratch/users/vsochat/DATA/BRAINMETA/ontological_comparison/data/resampled_z_4mm/000394.nii.gz'
p79
sI395
S'/scratch/users/vsochat/DATA/BRAINMETA/ontological_comparison/data/resampled_z_4mm/000395.nii.gz'
p80
sI401
S'/scratch/users/vsochat/DATA/BRAINMETA/ontological_comparison/data/resampled_z_4mm/000401.nii.gz'
p81
sI2963
S'/scratch/users/vsochat/DATA/BRAINMETA/ontological_comparison/data/resampled_z_4mm/002963.nii.gz'
p82
sI407
S'/scratch/users/vsochat/DATA/BRAINMETA/ontological_comparison/data/resampled_z_4mm/000407.nii.gz'
p83
sI412
S'/scratch/users/vsochat/DATA/BRAINMETA/ontological_comparison/data/resampled_z_4mm/000412.nii.gz'
p84
sI154
S'/scratch/users/vsochat/DATA/BRAINMETA/ontological_comparison/data/resampled_z_4mm/000154.nii.gz'
p85
sI415
S'/scratch/users/vsochat/DATA/BRAINMETA/ontological_comparison/data/resampled_z_4mm/000415.nii.gz'
p86
sI418
S'/scratch/users/vsochat/DATA/BRAINMETA/ontological_comparison/data/resampled_z_4mm/000418.nii.gz'
p87
sI419
S'/scratch/users/vsochat/DATA/BRAINMETA/ontological_comparison/data/resampled_z_4mm/000419.nii.gz'
p88
sI420
S'/scratch/users/vsochat/DATA/BRAINMETA/ontological_comparison/data/resampled_z_4mm/000420.nii.gz'
p89
sI8625
S'/scratch/users/vsochat/DATA/BRAINMETA/ontological_comparison/data/resampled_z_4mm/008625.nii.gz'
p90
sI3039
S'/scratch/users/vsochat/DATA/BRAINMETA/ontological_comparison/data/resampled_z_4mm/003039.nii.gz'
p91
sI3040
S'/scratch/users/vsochat/DATA/BRAINMETA/ontological_comparison/data/resampled_z_4mm/003040.nii.gz'
p92
sI3041
S'/scratch/users/vsochat/DATA/BRAINMETA/ontological_comparison/data/resampled_z_4mm/003041.nii.gz'
p93
s.